; Function Attrs: nounwind uwtable
define internal fastcc zeroext i1 @_equalLockingClause(ptr noundef nonnull readonly captures(none) %0, ptr noundef nonnull readonly captures(none) %1) unnamed_addr #0 {
  %3 = getelementptr inbounds nuw i8, ptr %0, i64 8
  %4 = load ptr, ptr %3, align 8
  %5 = getelementptr inbounds nuw i8, ptr %1, i64 8
  %6 = load ptr, ptr %5, align 8
  %7 = tail call zeroext i1 @equal(ptr noundef %4, ptr noundef %6)
  br i1 %7, label %8, label %18

8:                                                ; preds = %2
  %9 = getelementptr inbounds nuw i8, ptr %0, i64 16
  %10 = load i32, ptr %9, align 8
  %11 = getelementptr inbounds nuw i8, ptr %1, i64 16
  %12 = load i32, ptr %11, align 8
  %.not = icmp eq i32 %10, %12
  br i1 %.not, label %13, label %18

13:                                               ; preds = %8
  %14 = getelementptr inbounds nuw i8, ptr %0, i64 20
  %15 = load i32, ptr %14, align 4
  %16 = getelementptr inbounds nuw i8, ptr %1, i64 20
  %17 = load i32, ptr %16, align 4
  %.not7 = icmp eq i32 %15, %17
  br label %18

18:                                               ; preds = %13, %8, %2
  %.0 = phi i1 [ false, %2 ], [ false, %8 ], [ %.not7, %13 ]
  ret i1 %.0
}